; Function Attrs: nounwind uwtable
define i32 @Ssw_ClassesRefineGroup(ptr noundef captures(none) %0, ptr noundef readonly captures(none) %1, i32 noundef %2) local_unnamed_addr #0 {
  %4 = getelementptr i8, ptr %1, i64 4
  %.val11 = load i32, ptr %4, align 4, !tbaa !24
  %5 = icmp sgt i32 %.val11, 0
  br i1 %5, label %.lr.ph, label %.critedge

.lr.ph:                                           ; preds = %3
  %6 = getelementptr i8, ptr %1, i64 8
  br label %7

7:                                                ; preds = %.lr.ph, %7
  %indvars.iv = phi i64 [ 0, %.lr.ph ], [ %indvars.iv.next, %7 ]
  %.013 = phi i32 [ 0, %.lr.ph ], [ %11, %7 ]
  %.val10 = load ptr, ptr %6, align 8, !tbaa !29
  %8 = getelementptr inbounds nuw ptr, ptr %.val10, i64 %indvars.iv
  %9 = load ptr, ptr %8, align 8, !tbaa !46
  %10 = tail call i32 @Ssw_ClassesRefineOneClass(ptr noundef %0, ptr noundef %9, i32 noundef %2)
  %11 = add nsw i32 %10, %.013
  %indvars.iv.next = add nuw nsw i64 %indvars.iv, 1
  %.val = load i32, ptr %4, align 4, !tbaa !24
  %12 = sext i32 %.val to i64
  %13 = icmp slt i64 %indvars.iv.next, %12
  br i1 %13, label %7, label %.critedge, !llvm.loop !99

.critedge:                                        ; preds = %7, %3
  %.0.lcssa = phi i32 [ 0, %3 ], [ %11, %7 ]
  ret i32 %.0.lcssa
}